target datalayout = "e-m:e-p270:32:32-p271:32:32-p272:64:64-i64:64-i128:128-f80:128-n8:16:32:64-S128"
target triple = "x86_64-pc-linux-gnu"

%struct.poly_st = type { [256 x i32] }
%struct.PACKET = type { ptr, i64 }

; Function Attrs: inlinehint nounwind uwtable
define internal i32 @value_barrier_32(i32 noundef %0) #3 {
  %2 = alloca i32, align 4
  %3 = alloca i32, align 4
  store i32 %0, ptr %2, align 4, !tbaa !8
  call void @llvm.lifetime.start.p0(i64 4, ptr %3) #7
  %4 = load i32, ptr %2, align 4, !tbaa !8
  %5 = call i32 asm "", "=r,0,~{dirflag},~{fpsr},~{flags}"(i32 %4) #9, !srcloc !99
  store i32 %5, ptr %3, align 4, !tbaa !8
  %6 = load i32, ptr %3, align 4, !tbaa !8
  call void @llvm.lifetime.end.p0(i64 4, ptr %3) #7
  ret i32 %6
}

; Function Attrs: inlinehint nounwind uwtable
define internal i32 @constant_time_msb_32(i32 noundef %0) #3 {
  %2 = alloca i32, align 4
  store i32 %0, ptr %2, align 4, !tbaa !8
  %3 = load i32, ptr %2, align 4, !tbaa !8
  %4 = lshr i32 %3, 31
  %5 = sub i32 0, %4
  ret i32 %5
}

; Function Attrs: inlinehint nounwind uwtable
define internal i32 @constant_time_select_32(i32 noundef %0, i32 noundef %1, i32 noundef %2) #3 {
  %4 = alloca i32, align 4
  %5 = alloca i32, align 4
  %6 = alloca i32, align 4
  store i32 %0, ptr %4, align 4, !tbaa !8
  store i32 %1, ptr %5, align 4, !tbaa !8
  store i32 %2, ptr %6, align 4, !tbaa !8
  %7 = load i32, ptr %4, align 4, !tbaa !8
  %8 = call i32 @value_barrier_32(i32 noundef %7)
  %9 = load i32, ptr %5, align 4, !tbaa !8
  %10 = and i32 %8, %9
  %11 = load i32, ptr %4, align 4, !tbaa !8
  %12 = xor i32 %11, -1
  %13 = call i32 @value_barrier_32(i32 noundef %12)
  %14 = load i32, ptr %6, align 4, !tbaa !8
  %15 = and i32 %13, %14
  %16 = or i32 %10, %15
  ret i32 %16
}

; Function Attrs: inlinehint nounwind uwtable
define internal i32 @constant_time_lt_32(i32 noundef %0, i32 noundef %1) #3 {
  %3 = alloca i32, align 4
  %4 = alloca i32, align 4
  store i32 %0, ptr %3, align 4, !tbaa !8
  store i32 %1, ptr %4, align 4, !tbaa !8
  %5 = load i32, ptr %3, align 4, !tbaa !8
  %6 = load i32, ptr %3, align 4, !tbaa !8
  %7 = load i32, ptr %4, align 4, !tbaa !8
  %8 = xor i32 %6, %7
  %9 = load i32, ptr %3, align 4, !tbaa !8
  %10 = load i32, ptr %4, align 4, !tbaa !8
  %11 = sub i32 %9, %10
  %12 = load i32, ptr %4, align 4, !tbaa !8
  %13 = xor i32 %11, %12
  %14 = or i32 %8, %13
  %15 = xor i32 %5, %14
  %16 = call i32 @constant_time_msb_32(i32 noundef %15)
  ret i32 %16
}

; Function Attrs: inlinehint nounwind uwtable
define internal i64 @PACKET_remaining(ptr noundef %0) #3 {
  %2 = alloca ptr, align 8
  store ptr %0, ptr %2, align 8, !tbaa !40
  %3 = load ptr, ptr %2, align 8, !tbaa !40
  %4 = getelementptr inbounds nuw %struct.PACKET, ptr %3, i32 0, i32 1
  %5 = load i64, ptr %4, align 8, !tbaa !43
  ret i64 %5
}

; Function Attrs: inlinehint nounwind uwtable
define internal i32 @reduce_once(i32 noundef %0) #3 {
  %2 = alloca i32, align 4
  store i32 %0, ptr %2, align 4, !tbaa !8
  %3 = load i32, ptr %2, align 4, !tbaa !8
  %4 = call i32 @constant_time_lt_32(i32 noundef %3, i32 noundef 8380417)
  %5 = load i32, ptr %2, align 4, !tbaa !8
  %6 = load i32, ptr %2, align 4, !tbaa !8
  %7 = sub i32 %6, 8380417
  %8 = call i32 @constant_time_select_32(i32 noundef %4, i32 noundef %5, i32 noundef %7)
  ret i32 %8
}

; Function Attrs: inlinehint nounwind uwtable
define internal i32 @__uint32_identity(i32 noundef %0) #3 {
  %2 = alloca i32, align 4
  store i32 %0, ptr %2, align 4, !tbaa !8
  %3 = load i32, ptr %2, align 4, !tbaa !8
  ret i32 %3
}

; Function Attrs: inlinehint nounwind uwtable
define internal void @packet_forward(ptr noundef %0, i64 noundef %1) #3 {
  %3 = alloca ptr, align 8
  %4 = alloca i64, align 8
  store ptr %0, ptr %3, align 8, !tbaa !40
  store i64 %1, ptr %4, align 8, !tbaa !10
  %5 = load i64, ptr %4, align 8, !tbaa !10
  %6 = load ptr, ptr %3, align 8, !tbaa !40
  %7 = getelementptr inbounds nuw %struct.PACKET, ptr %6, i32 0, i32 0
  %8 = load ptr, ptr %7, align 8, !tbaa !41
  %9 = getelementptr inbounds nuw i8, ptr %8, i64 %5
  store ptr %9, ptr %7, align 8, !tbaa !41
  %10 = load i64, ptr %4, align 8, !tbaa !10
  %11 = load ptr, ptr %3, align 8, !tbaa !40
  %12 = getelementptr inbounds nuw %struct.PACKET, ptr %11, i32 0, i32 1
  %13 = load i64, ptr %12, align 8, !tbaa !43
  %14 = sub i64 %13, %10
  store i64 %14, ptr %12, align 8, !tbaa !43
  ret void
}

; Function Attrs: inlinehint nounwind uwtable
define internal i32 @PACKET_peek_bytes(ptr noundef %0, ptr noundef %1, i64 noundef %2) #3 {
  %4 = alloca i32, align 4
  %5 = alloca ptr, align 8
  %6 = alloca ptr, align 8
  %7 = alloca i64, align 8
  store ptr %0, ptr %5, align 8, !tbaa !40
  store ptr %1, ptr %6, align 8, !tbaa !97
  store i64 %2, ptr %7, align 8, !tbaa !10
  %8 = load ptr, ptr %5, align 8, !tbaa !40
  %9 = call i64 @PACKET_remaining(ptr noundef %8)
  %10 = load i64, ptr %7, align 8, !tbaa !10
  %11 = icmp ult i64 %9, %10
  br i1 %11, label %12, label %13

12:                                               ; preds = %3
  store i32 0, ptr %4, align 4
  br label %18

13:                                               ; preds = %3
  %14 = load ptr, ptr %5, align 8, !tbaa !40
  %15 = getelementptr inbounds nuw %struct.PACKET, ptr %14, i32 0, i32 0
  %16 = load ptr, ptr %15, align 8, !tbaa !41
  %17 = load ptr, ptr %6, align 8, !tbaa !97
  store ptr %16, ptr %17, align 8, !tbaa !25
  store i32 1, ptr %4, align 4
  br label %18

18:                                               ; preds = %13, %12
  %19 = load i32, ptr %4, align 4
  ret i32 %19
}

; Function Attrs: inlinehint nounwind uwtable
define internal i32 @mod_sub(i32 noundef %0, i32 noundef %1) #3 {
  %3 = alloca i32, align 4
  %4 = alloca i32, align 4
  store i32 %0, ptr %3, align 4, !tbaa !8
  store i32 %1, ptr %4, align 4, !tbaa !8
  %5 = load i32, ptr %3, align 4, !tbaa !8
  %6 = add i32 8380417, %5
  %7 = load i32, ptr %4, align 4, !tbaa !8
  %8 = sub i32 %6, %7
  %9 = call i32 @reduce_once(i32 noundef %8)
  ret i32 %9
}

; Function Attrs: inlinehint nounwind uwtable
define internal ptr @OPENSSL_load_u32_le(ptr noundef %0, ptr noundef %1) #3 {
  %3 = alloca ptr, align 8
  %4 = alloca ptr, align 8
  %5 = alloca i32, align 4
  store ptr %0, ptr %3, align 8, !tbaa !31
  store ptr %1, ptr %4, align 8, !tbaa !25
  call void @llvm.lifetime.start.p0(i64 4, ptr %5) #7
  %6 = load ptr, ptr %4, align 8, !tbaa !25
  call void @llvm.memcpy.p0.p0.i64(ptr align 4 %5, ptr align 1 %6, i64 4, i1 false)
  %7 = load i32, ptr %5, align 4, !tbaa !8
  %8 = call i32 @__uint32_identity(i32 noundef %7)
  %9 = load ptr, ptr %3, align 8, !tbaa !31
  store i32 %8, ptr %9, align 4, !tbaa !8
  %10 = load ptr, ptr %4, align 8, !tbaa !25
  %11 = getelementptr inbounds i8, ptr %10, i64 4
  call void @llvm.lifetime.end.p0(i64 4, ptr %5) #7
  ret ptr %11
}

; Function Attrs: inlinehint nounwind uwtable
define internal i32 @PACKET_get_bytes(ptr noundef %0, ptr noundef %1, i64 noundef %2) #3 {
  %4 = alloca i32, align 4
  %5 = alloca ptr, align 8
  %6 = alloca ptr, align 8
  %7 = alloca i64, align 8
  store ptr %0, ptr %5, align 8, !tbaa !40
  store ptr %1, ptr %6, align 8, !tbaa !97
  store i64 %2, ptr %7, align 8, !tbaa !10
  %8 = load ptr, ptr %5, align 8, !tbaa !40
  %9 = load ptr, ptr %6, align 8, !tbaa !97
  %10 = load i64, ptr %7, align 8, !tbaa !10
  %11 = call i32 @PACKET_peek_bytes(ptr noundef %8, ptr noundef %9, i64 noundef %10)
  %12 = icmp ne i32 %11, 0
  br i1 %12, label %14, label %13

13:                                               ; preds = %3
  store i32 0, ptr %4, align 4
  br label %17

14:                                               ; preds = %3
  %15 = load ptr, ptr %5, align 8, !tbaa !40
  %16 = load i64, ptr %7, align 8, !tbaa !10
  call void @packet_forward(ptr noundef %15, i64 noundef %16)
  store i32 1, ptr %4, align 4
  br label %17

17:                                               ; preds = %14, %13
  %18 = load i32, ptr %4, align 4
  ret i32 %18
}

; Function Attrs: nounwind uwtable
define internal i32 @poly_decode_signed_two_to_power_17(ptr noundef %0, ptr noundef %1) #0 {
  %3 = alloca i32, align 4
  %4 = alloca ptr, align 8
  %5 = alloca ptr, align 8
  %6 = alloca ptr, align 8
  %7 = alloca ptr, align 8
  %8 = alloca ptr, align 8
  %9 = alloca i32, align 4
  %10 = alloca i32, align 4
  %11 = alloca i32, align 4
  %12 = alloca i32, align 4
  store ptr %0, ptr %4, align 8, !tbaa !20
  store ptr %1, ptr %5, align 8, !tbaa !40
  call void @llvm.lifetime.start.p0(i64 8, ptr %6) #7
  %13 = load ptr, ptr %4, align 8, !tbaa !20
  %14 = getelementptr inbounds nuw %struct.poly_st, ptr %13, i32 0, i32 0
  %15 = getelementptr inbounds [256 x i32], ptr %14, i64 0, i64 0
  store ptr %15, ptr %6, align 8, !tbaa !31
  call void @llvm.lifetime.start.p0(i64 8, ptr %7) #7
  %16 = load ptr, ptr %6, align 8, !tbaa !31
  %17 = getelementptr inbounds i32, ptr %16, i64 256
  store ptr %17, ptr %7, align 8, !tbaa !31
  call void @llvm.lifetime.start.p0(i64 8, ptr %8) #7
  br label %18

18:                                               ; preds = %62, %2
  call void @llvm.lifetime.start.p0(i64 4, ptr %9) #7
  call void @llvm.lifetime.start.p0(i64 4, ptr %10) #7
  call void @llvm.lifetime.start.p0(i64 4, ptr %11) #7
  %19 = load ptr, ptr %5, align 8, !tbaa !40
  %20 = call i32 @PACKET_get_bytes(ptr noundef %19, ptr noundef %8, i64 noundef 9)
  %21 = icmp ne i32 %20, 0
  br i1 %21, label %23, label %22

22:                                               ; preds = %18
  store i32 0, ptr %3, align 4
  store i32 1, ptr %12, align 4
  br label %59

23:                                               ; preds = %18
  %24 = load ptr, ptr %8, align 8, !tbaa !25
  %25 = call ptr @OPENSSL_load_u32_le(ptr noundef %9, ptr noundef %24)
  store ptr %25, ptr %8, align 8, !tbaa !25
  %26 = load ptr, ptr %8, align 8, !tbaa !25
  %27 = call ptr @OPENSSL_load_u32_le(ptr noundef %10, ptr noundef %26)
  store ptr %27, ptr %8, align 8, !tbaa !25
  %28 = load ptr, ptr %8, align 8, !tbaa !25
  %29 = load i8, ptr %28, align 1, !tbaa !33
  %30 = zext i8 %29 to i32
  store i32 %30, ptr %11, align 4, !tbaa !8
  %31 = load i32, ptr %9, align 4, !tbaa !8
  %32 = and i32 %31, 262143
  %33 = call i32 @mod_sub(i32 noundef 131072, i32 noundef %32)
  %34 = load ptr, ptr %6, align 8, !tbaa !31
  %35 = getelementptr inbounds nuw i32, ptr %34, i32 1
  store ptr %35, ptr %6, align 8, !tbaa !31
  store i32 %33, ptr %34, align 4, !tbaa !8
  %36 = load i32, ptr %9, align 4, !tbaa !8
  %37 = lshr i32 %36, 18
  %38 = load i32, ptr %10, align 4, !tbaa !8
  %39 = and i32 %38, 15
  %40 = shl i32 %39, 14
  %41 = or i32 %37, %40
  %42 = call i32 @mod_sub(i32 noundef 131072, i32 noundef %41)
  %43 = load ptr, ptr %6, align 8, !tbaa !31
  %44 = getelementptr inbounds nuw i32, ptr %43, i32 1
  store ptr %44, ptr %6, align 8, !tbaa !31
  store i32 %42, ptr %43, align 4, !tbaa !8
  %45 = load i32, ptr %10, align 4, !tbaa !8
  %46 = lshr i32 %45, 4
  %47 = and i32 %46, 262143
  %48 = call i32 @mod_sub(i32 noundef 131072, i32 noundef %47)
  %49 = load ptr, ptr %6, align 8, !tbaa !31
  %50 = getelementptr inbounds nuw i32, ptr %49, i32 1
  store ptr %50, ptr %6, align 8, !tbaa !31
  store i32 %48, ptr %49, align 4, !tbaa !8
  %51 = load i32, ptr %10, align 4, !tbaa !8
  %52 = lshr i32 %51, 22
  %53 = load i32, ptr %11, align 4, !tbaa !8
  %54 = shl i32 %53, 10
  %55 = or i32 %52, %54
  %56 = call i32 @mod_sub(i32 noundef 131072, i32 noundef %55)
  %57 = load ptr, ptr %6, align 8, !tbaa !31
  %58 = getelementptr inbounds nuw i32, ptr %57, i32 1
  store ptr %58, ptr %6, align 8, !tbaa !31
  store i32 %56, ptr %57, align 4, !tbaa !8
  store i32 0, ptr %12, align 4
  br label %59

59:                                               ; preds = %23, %22
  call void @llvm.lifetime.end.p0(i64 4, ptr %11) #7
  call void @llvm.lifetime.end.p0(i64 4, ptr %10) #7
  call void @llvm.lifetime.end.p0(i64 4, ptr %9) #7
  %60 = load i32, ptr %12, align 4
  switch i32 %60, label %67 [
    i32 0, label %61
  ]

61:                                               ; preds = %59
  br label %62

62:                                               ; preds = %61
  %63 = load ptr, ptr %6, align 8, !tbaa !31
  %64 = load ptr, ptr %7, align 8, !tbaa !31
  %65 = icmp ult ptr %63, %64
  br i1 %65, label %18, label %66, !llvm.loop !90

66:                                               ; preds = %62
  store i32 1, ptr %3, align 4
  store i32 1, ptr %12, align 4
  br label %67

67:                                               ; preds = %66, %59
  call void @llvm.lifetime.end.p0(i64 8, ptr %8) #7
  call void @llvm.lifetime.end.p0(i64 8, ptr %7) #7
  call void @llvm.lifetime.end.p0(i64 8, ptr %6) #7
  %68 = load i32, ptr %3, align 4
  ret i32 %68
}