; Function Attrs: nounwind memory(read, argmem: readwrite, inaccessiblemem: none) uwtable
define internal range(i32 0, 2) i32 @poly_decode_signed_two_to_power_17(ptr noundef writeonly captures(none) %0, ptr noundef captures(none) %1) unnamed_addr #4 {
  %3 = getelementptr i8, ptr %1, i64 8
  %.promoted = load i64, ptr %3, align 8, !tbaa !50
  br label %4

4:                                                ; preds = %7, %2
  %5 = phi i64 [ %.promoted, %2 ], [ %10, %7 ]
  %.012.idx = phi i64 [ 0, %2 ], [ %.012.add, %7 ]
  %6 = icmp ult i64 %5, 9
  br i1 %6, label %.thread, label %7

7:                                                ; preds = %4
  %8 = load ptr, ptr %1, align 8, !tbaa !48
  %9 = getelementptr inbounds nuw i8, ptr %8, i64 9
  store ptr %9, ptr %1, align 8, !tbaa !48
  %10 = add i64 %5, -9
  store i64 %10, ptr %3, align 8, !tbaa !50
  %.012.ptr = getelementptr inbounds nuw i8, ptr %0, i64 %.012.idx
  %.0.copyload.i = load i32, ptr %8, align 1
  %11 = getelementptr inbounds nuw i8, ptr %8, i64 4
  %.0.copyload.i14 = load i32, ptr %11, align 1
  %12 = getelementptr inbounds nuw i8, ptr %8, i64 8
  %13 = load i8, ptr %12, align 1, !tbaa !23
  %14 = zext i8 %13 to i32
  %15 = and i32 %.0.copyload.i, 262143
  %16 = sub nuw nsw i32 8511489, %15
  %17 = sub nsw i32 131072, %15
  %.neg.i.i.i.i = ashr i32 %17, 31
  %18 = tail call i32 asm "", "=r,0,~{dirflag},~{fpsr},~{flags}"(i32 range(i32 -1, 1) %.neg.i.i.i.i) #10, !srcloc !42
  %19 = and i32 %18, %16
  %20 = xor i32 %.neg.i.i.i.i, -1
  %21 = tail call i32 asm "", "=r,0,~{dirflag},~{fpsr},~{flags}"(i32 range(i32 -1, 2) %20) #10, !srcloc !42
  %22 = and i32 %21, %17
  %23 = or i32 %22, %19
  %24 = getelementptr inbounds nuw i8, ptr %.012.ptr, i64 4
  store i32 %23, ptr %.012.ptr, align 4, !tbaa !21
  %25 = lshr i32 %.0.copyload.i, 18
  %26 = shl i32 %.0.copyload.i14, 14
  %27 = and i32 %26, 245760
  %28 = or disjoint i32 %27, %25
  %29 = sub nuw nsw i32 8511489, %28
  %30 = sub nsw i32 131072, %28
  %.neg.i.i.i.i15 = ashr i32 %30, 31
  %31 = tail call i32 asm "", "=r,0,~{dirflag},~{fpsr},~{flags}"(i32 range(i32 -1, 1) %.neg.i.i.i.i15) #10, !srcloc !42
  %32 = and i32 %31, %29
  %33 = xor i32 %.neg.i.i.i.i15, -1
  %34 = tail call i32 asm "", "=r,0,~{dirflag},~{fpsr},~{flags}"(i32 range(i32 -1, 2) %33) #10, !srcloc !42
  %35 = and i32 %34, %30
  %36 = or i32 %35, %32
  %37 = getelementptr inbounds nuw i8, ptr %.012.ptr, i64 8
  store i32 %36, ptr %24, align 4, !tbaa !21
  %38 = lshr i32 %.0.copyload.i14, 4
  %39 = and i32 %38, 262143
  %40 = sub nuw nsw i32 8511489, %39
  %41 = sub nsw i32 131072, %39
  %.neg.i.i.i.i16 = ashr i32 %41, 31
  %42 = tail call i32 asm "", "=r,0,~{dirflag},~{fpsr},~{flags}"(i32 range(i32 -1, 1) %.neg.i.i.i.i16) #10, !srcloc !42
  %43 = and i32 %42, %40
  %44 = xor i32 %.neg.i.i.i.i16, -1
  %45 = tail call i32 asm "", "=r,0,~{dirflag},~{fpsr},~{flags}"(i32 range(i32 -1, 2) %44) #10, !srcloc !42
  %46 = and i32 %45, %41
  %47 = or i32 %46, %43
  %48 = getelementptr inbounds nuw i8, ptr %.012.ptr, i64 12
  store i32 %47, ptr %37, align 4, !tbaa !21
  %49 = tail call i32 @llvm.fshl.i32(i32 %14, i32 %.0.copyload.i14, i32 10)
  %50 = sub nuw nsw i32 8511489, %49
  %51 = sub nsw i32 131072, %49
  %.neg.i.i.i.i17 = ashr i32 %51, 31
  %52 = tail call i32 asm "", "=r,0,~{dirflag},~{fpsr},~{flags}"(i32 range(i32 -1, 1) %.neg.i.i.i.i17) #10, !srcloc !42
  %53 = and i32 %52, %50
  %54 = xor i32 %.neg.i.i.i.i17, -1
  %55 = tail call i32 asm "", "=r,0,~{dirflag},~{fpsr},~{flags}"(i32 range(i32 -1, 2) %54) #10, !srcloc !42
  %56 = and i32 %55, %51
  %57 = or i32 %56, %53
  %.012.add = add nuw nsw i64 %.012.idx, 16
  store i32 %57, ptr %48, align 4, !tbaa !21
  %58 = icmp samesign ult i64 %.012.idx, 1008
  br i1 %58, label %4, label %.thread, !llvm.loop !80

.thread:                                          ; preds = %4, %7
  %.2 = phi i32 [ 1, %7 ], [ 0, %4 ]
  ret i32 %.2
}